target datalayout = "e-m:e-p270:32:32-p271:32:32-p272:64:64-i64:64-i128:128-f80:128-n8:16:32:64-S128"
target triple = "x86_64-pc-linux-gnu"

%struct.tm = type { i32, i32, i32, i32, i32, i32, i32, i32, i32, i64, ptr }

; Function Attrs: nounwind uwtable
define internal i64 @dt2local(i64 noundef %0, i32 noundef %1) #0 {
  %3 = alloca i64, align 8
  %4 = alloca i32, align 4
  store i64 %0, ptr %3, align 8
  store i32 %1, ptr %4, align 4
  %5 = load i32, ptr %4, align 4
  %6 = sext i32 %5 to i64
  %7 = mul i64 %6, 1000000
  %8 = load i64, ptr %3, align 8
  %9 = sub i64 %8, %7
  store i64 %9, ptr %3, align 8
  %10 = load i64, ptr %3, align 8
  ret i64 %10
}

; Function Attrs: inlinehint nounwind uwtable
define internal zeroext i1 @pg_add_s64_overflow(i64 noundef %0, i64 noundef %1, ptr noundef %2) #3 {
  %4 = alloca i64, align 8
  %5 = alloca i64, align 8
  %6 = alloca ptr, align 8
  store i64 %0, ptr %4, align 8
  store i64 %1, ptr %5, align 8
  store ptr %2, ptr %6, align 8
  %7 = load i64, ptr %4, align 8
  %8 = load i64, ptr %5, align 8
  %9 = load ptr, ptr %6, align 8
  %10 = call { i64, i1 } @llvm.sadd.with.overflow.i64(i64 %7, i64 %8)
  %11 = extractvalue { i64, i1 } %10, 1
  %12 = extractvalue { i64, i1 } %10, 0
  store i64 %12, ptr %9, align 8
  ret i1 %11
}

; Function Attrs: inlinehint nounwind uwtable
define internal zeroext i1 @pg_mul_s64_overflow(i64 noundef %0, i64 noundef %1, ptr noundef %2) #3 {
  %4 = alloca i64, align 8
  %5 = alloca i64, align 8
  %6 = alloca ptr, align 8
  store i64 %0, ptr %4, align 8
  store i64 %1, ptr %5, align 8
  store ptr %2, ptr %6, align 8
  %7 = load i64, ptr %4, align 8
  %8 = load i64, ptr %5, align 8
  %9 = load ptr, ptr %6, align 8
  %10 = call { i64, i1 } @llvm.smul.with.overflow.i64(i64 %7, i64 %8)
  %11 = extractvalue { i64, i1 } %10, 1
  %12 = extractvalue { i64, i1 } %10, 0
  store i64 %12, ptr %9, align 8
  ret i1 %11
}

; Function Attrs: nounwind uwtable
define internal i64 @time2t(i32 noundef %0, i32 noundef %1, i32 noundef %2, i32 noundef %3) #0 {
  %5 = alloca i32, align 4
  %6 = alloca i32, align 4
  %7 = alloca i32, align 4
  %8 = alloca i32, align 4
  store i32 %0, ptr %5, align 4
  store i32 %1, ptr %6, align 4
  store i32 %2, ptr %7, align 4
  store i32 %3, ptr %8, align 4
  %9 = load i32, ptr %5, align 4
  %10 = mul i32 %9, 60
  %11 = load i32, ptr %6, align 4
  %12 = add i32 %10, %11
  %13 = mul i32 %12, 60
  %14 = load i32, ptr %7, align 4
  %15 = add i32 %13, %14
  %16 = sext i32 %15 to i64
  %17 = mul i64 %16, 1000000
  %18 = load i32, ptr %8, align 4
  %19 = sext i32 %18 to i64
  %20 = add i64 %17, %19
  ret i64 %20
}

; Function Attrs: nounwind uwtable
define i32 @tm2timestamp(ptr noundef %0, i32 noundef %1, ptr noundef %2, ptr noundef %3) #0 {
  %5 = alloca i32, align 4
  %6 = alloca ptr, align 8
  %7 = alloca i32, align 4
  %8 = alloca ptr, align 8
  %9 = alloca ptr, align 8
  %10 = alloca i32, align 4
  %11 = alloca i64, align 8
  %12 = alloca i32, align 4
  store ptr %0, ptr %6, align 8
  store i32 %1, ptr %7, align 4
  store ptr %2, ptr %8, align 8
  store ptr %3, ptr %9, align 8
  call void @llvm.lifetime.start.p0(i64 4, ptr %10) #11
  call void @llvm.lifetime.start.p0(i64 8, ptr %11) #11
  %13 = load ptr, ptr %6, align 8
  %14 = getelementptr inbounds nuw %struct.tm, ptr %13, i32 0, i32 5
  %15 = load i32, ptr %14, align 4
  %16 = icmp sgt i32 %15, -4713
  br i1 %16, label %27, label %17

17:                                               ; preds = %4
  %18 = load ptr, ptr %6, align 8
  %19 = getelementptr inbounds nuw %struct.tm, ptr %18, i32 0, i32 5
  %20 = load i32, ptr %19, align 4
  %21 = icmp eq i32 %20, -4713
  br i1 %21, label %22, label %42

22:                                               ; preds = %17
  %23 = load ptr, ptr %6, align 8
  %24 = getelementptr inbounds nuw %struct.tm, ptr %23, i32 0, i32 4
  %25 = load i32, ptr %24, align 8
  %26 = icmp sge i32 %25, 11
  br i1 %26, label %27, label %42

27:                                               ; preds = %22, %4
  %28 = load ptr, ptr %6, align 8
  %29 = getelementptr inbounds nuw %struct.tm, ptr %28, i32 0, i32 5
  %30 = load i32, ptr %29, align 4
  %31 = icmp slt i32 %30, 5874898
  br i1 %31, label %43, label %32

32:                                               ; preds = %27
  %33 = load ptr, ptr %6, align 8
  %34 = getelementptr inbounds nuw %struct.tm, ptr %33, i32 0, i32 5
  %35 = load i32, ptr %34, align 4
  %36 = icmp eq i32 %35, 5874898
  br i1 %36, label %37, label %42

37:                                               ; preds = %32
  %38 = load ptr, ptr %6, align 8
  %39 = getelementptr inbounds nuw %struct.tm, ptr %38, i32 0, i32 4
  %40 = load i32, ptr %39, align 8
  %41 = icmp slt i32 %40, 6
  br i1 %41, label %43, label %42

42:                                               ; preds = %37, %32, %22, %17
  store i32 -1, ptr %5, align 4
  store i32 1, ptr %12, align 4
  br label %107

43:                                               ; preds = %37, %27
  %44 = load ptr, ptr %6, align 8
  %45 = getelementptr inbounds nuw %struct.tm, ptr %44, i32 0, i32 5
  %46 = load i32, ptr %45, align 4
  %47 = load ptr, ptr %6, align 8
  %48 = getelementptr inbounds nuw %struct.tm, ptr %47, i32 0, i32 4
  %49 = load i32, ptr %48, align 8
  %50 = load ptr, ptr %6, align 8
  %51 = getelementptr inbounds nuw %struct.tm, ptr %50, i32 0, i32 3
  %52 = load i32, ptr %51, align 4
  %53 = call i32 @date2j(i32 noundef %46, i32 noundef %49, i32 noundef %52)
  %54 = call i32 @date2j(i32 noundef 2000, i32 noundef 1, i32 noundef 1)
  %55 = sub i32 %53, %54
  store i32 %55, ptr %10, align 4
  %56 = load ptr, ptr %6, align 8
  %57 = getelementptr inbounds nuw %struct.tm, ptr %56, i32 0, i32 2
  %58 = load i32, ptr %57, align 8
  %59 = load ptr, ptr %6, align 8
  %60 = getelementptr inbounds nuw %struct.tm, ptr %59, i32 0, i32 1
  %61 = load i32, ptr %60, align 4
  %62 = load ptr, ptr %6, align 8
  %63 = getelementptr inbounds nuw %struct.tm, ptr %62, i32 0, i32 0
  %64 = load i32, ptr %63, align 8
  %65 = load i32, ptr %7, align 4
  %66 = call i64 @time2t(i32 noundef %58, i32 noundef %61, i32 noundef %64, i32 noundef %65)
  store i64 %66, ptr %11, align 8
  %67 = load i32, ptr %10, align 4
  %68 = sext i32 %67 to i64
  %69 = load ptr, ptr %9, align 8
  %70 = call zeroext i1 @pg_mul_s64_overflow(i64 noundef %68, i64 noundef 86400000000, ptr noundef %69)
  br i1 %70, label %77, label %71

71:                                               ; preds = %43
  %72 = load ptr, ptr %9, align 8
  %73 = load i64, ptr %72, align 8
  %74 = load i64, ptr %11, align 8
  %75 = load ptr, ptr %9, align 8
  %76 = call zeroext i1 @pg_add_s64_overflow(i64 noundef %73, i64 noundef %74, ptr noundef %75)
  br label %77

77:                                               ; preds = %71, %43
  %78 = phi i1 [ true, %43 ], [ %76, %71 ]
  %79 = zext i1 %78 to i32
  %80 = icmp ne i32 %79, 0
  %81 = zext i1 %80 to i32
  %82 = sext i32 %81 to i64
  %83 = call i64 @llvm.expect.i64(i64 %82, i64 0)
  %84 = icmp ne i64 %83, 0
  br i1 %84, label %85, label %86

85:                                               ; preds = %77
  store i32 -1, ptr %5, align 4
  store i32 1, ptr %12, align 4
  br label %107

86:                                               ; preds = %77
  %87 = load ptr, ptr %8, align 8
  %88 = icmp ne ptr %87, null
  br i1 %88, label %89, label %97

89:                                               ; preds = %86
  %90 = load ptr, ptr %9, align 8
  %91 = load i64, ptr %90, align 8
  %92 = load ptr, ptr %8, align 8
  %93 = load i32, ptr %92, align 4
  %94 = sub i32 0, %93
  %95 = call i64 @dt2local(i64 noundef %91, i32 noundef %94)
  %96 = load ptr, ptr %9, align 8
  store i64 %95, ptr %96, align 8
  br label %97

97:                                               ; preds = %89, %86
  %98 = load ptr, ptr %9, align 8
  %99 = load i64, ptr %98, align 8
  %100 = icmp sle i64 -211813488000000000, %99
  br i1 %100, label %101, label %105

101:                                              ; preds = %97
  %102 = load ptr, ptr %9, align 8
  %103 = load i64, ptr %102, align 8
  %104 = icmp slt i64 %103, 9223371331200000000
  br i1 %104, label %106, label %105

105:                                              ; preds = %101, %97
  store i32 -1, ptr %5, align 4
  store i32 1, ptr %12, align 4
  br label %107

106:                                              ; preds = %101
  store i32 0, ptr %5, align 4
  store i32 1, ptr %12, align 4
  br label %107

107:                                              ; preds = %106, %105, %85, %42
  call void @llvm.lifetime.end.p0(i64 8, ptr %11) #11
  call void @llvm.lifetime.end.p0(i64 4, ptr %10) #11
  %108 = load i32, ptr %5, align 4
  ret i32 %108
}