; Function Attrs: nounwind uwtable
define range(i32 -1, 1) i32 @tm2timestamp(ptr noundef readonly captures(none) %0, i32 noundef %1, ptr noundef readonly captures(address_is_null) %2, ptr noundef writeonly captures(none) %3) local_unnamed_addr #0 {
  %5 = getelementptr inbounds nuw i8, ptr %0, i64 20
  %6 = load i32, ptr %5, align 4
  %7 = icmp sgt i32 %6, -4713
  br i1 %7, label %14, label %8

8:                                                ; preds = %4
  %9 = icmp eq i32 %6, -4713
  br i1 %9, label %10, label %.critedge

10:                                               ; preds = %8
  %11 = getelementptr inbounds nuw i8, ptr %0, i64 16
  %12 = load i32, ptr %11, align 8
  %13 = icmp sgt i32 %12, 10
  br i1 %13, label %.thread, label %.critedge

14:                                               ; preds = %4
  %15 = icmp slt i32 %6, 5874898
  br i1 %15, label %..thread_crit_edge, label %16

..thread_crit_edge:                               ; preds = %14
  %.phi.trans.insert = getelementptr inbounds nuw i8, ptr %0, i64 16
  %.pre = load i32, ptr %.phi.trans.insert, align 8
  br label %.thread

16:                                               ; preds = %14
  %17 = icmp eq i32 %6, 5874898
  br i1 %17, label %18, label %.critedge

18:                                               ; preds = %16
  %19 = getelementptr inbounds nuw i8, ptr %0, i64 16
  %20 = load i32, ptr %19, align 8
  %21 = icmp slt i32 %20, 6
  br i1 %21, label %.thread, label %.critedge

.thread:                                          ; preds = %..thread_crit_edge, %10, %18
  %22 = phi i32 [ %.pre, %..thread_crit_edge ], [ %12, %10 ], [ %20, %18 ]
  %23 = getelementptr inbounds nuw i8, ptr %0, i64 12
  %24 = load i32, ptr %23, align 4
  %25 = tail call i32 @date2j(i32 noundef %6, i32 noundef %22, i32 noundef %24) #10
  %26 = tail call i32 @date2j(i32 noundef 2000, i32 noundef 1, i32 noundef 1) #10
  %27 = sub i32 %25, %26
  %28 = getelementptr inbounds nuw i8, ptr %0, i64 8
  %29 = load i32, ptr %28, align 8
  %30 = getelementptr inbounds nuw i8, ptr %0, i64 4
  %31 = load i32, ptr %30, align 4
  %32 = load i32, ptr %0, align 8
  %33 = sext i32 %27 to i64
  %34 = tail call { i64, i1 } @llvm.smul.with.overflow.i64(i64 range(i64 -2147483648, 2147483648) %33, i64 86400000000)
  %35 = extractvalue { i64, i1 } %34, 1
  %36 = extractvalue { i64, i1 } %34, 0
  store i64 %36, ptr %3, align 8
  br i1 %35, label %.critedge, label %37

37:                                               ; preds = %.thread
  %38 = mul i32 %29, 60
  %39 = add i32 %38, %31
  %40 = mul i32 %39, 60
  %41 = add i32 %40, %32
  %42 = sext i32 %41 to i64
  %43 = mul nsw i64 %42, 1000000
  %44 = sext i32 %1 to i64
  %45 = add nsw i64 %43, %44
  %46 = tail call { i64, i1 } @llvm.sadd.with.overflow.i64(i64 %36, i64 range(i64 -2147485795483648, 2147485794483648) %45)
  %47 = extractvalue { i64, i1 } %46, 1
  %48 = extractvalue { i64, i1 } %46, 0
  store i64 %48, ptr %3, align 8
  br i1 %47, label %.critedge, label %49, !prof !3

49:                                               ; preds = %37
  %.not = icmp eq ptr %2, null
  br i1 %.not, label %55, label %50

50:                                               ; preds = %49
  %51 = load i32, ptr %2, align 4
  %52 = sub i32 0, %51
  %53 = sext i32 %52 to i64
  %.neg.i = mul nsw i64 %53, -1000000
  %54 = add i64 %.neg.i, %48
  store i64 %54, ptr %3, align 8
  br label %55

55:                                               ; preds = %50, %49
  %56 = phi i64 [ %54, %50 ], [ %48, %49 ]
  %57 = add i64 %56, -9223371331200000000
  %or.cond = icmp ult i64 %57, 9011559254509551616
  %spec.select = sext i1 %or.cond to i32
  br label %.critedge

.critedge:                                        ; preds = %55, %.thread, %37, %8, %10, %16, %18
  %.0 = phi i32 [ -1, %18 ], [ -1, %16 ], [ -1, %10 ], [ -1, %8 ], [ -1, %37 ], [ -1, %.thread ], [ %spec.select, %55 ]
  ret i32 %.0
}